target datalayout = "e-m:e-p270:32:32-p271:32:32-p272:64:64-i64:64-i128:128-f80:128-n8:16:32:64-S128"
target triple = "x86_64-pc-linux-gnu"

; Function Attrs: nounwind uwtable
define i32 @H5LTget_attribute_info(i64 noundef %0, ptr noundef %1, ptr noundef %2, ptr noundef %3, ptr noundef %4, ptr noundef %5) #0 {
  %7 = alloca i32, align 4
  %8 = alloca i64, align 8
  %9 = alloca ptr, align 8
  %10 = alloca ptr, align 8
  %11 = alloca ptr, align 8
  %12 = alloca ptr, align 8
  %13 = alloca ptr, align 8
  %14 = alloca i64, align 8
  %15 = alloca i64, align 8
  %16 = alloca i64, align 8
  %17 = alloca i64, align 8
  %18 = alloca i32, align 4
  store i64 %0, ptr %8, align 8, !tbaa !3
  store ptr %1, ptr %9, align 8, !tbaa !7
  store ptr %2, ptr %10, align 8, !tbaa !7
  store ptr %3, ptr %11, align 8, !tbaa !12
  store ptr %4, ptr %12, align 8, !tbaa !14
  store ptr %5, ptr %13, align 8, !tbaa !12
  call void @llvm.lifetime.start.p0(i64 8, ptr %14) #11
  call void @llvm.lifetime.start.p0(i64 8, ptr %15) #11
  call void @llvm.lifetime.start.p0(i64 8, ptr %16) #11
  call void @llvm.lifetime.start.p0(i64 8, ptr %17) #11
  %19 = load ptr, ptr %9, align 8, !tbaa !7
  %20 = icmp eq ptr %19, null
  br i1 %20, label %21, label %22

21:                                               ; preds = %6
  store i32 -1, ptr %7, align 4
  store i32 1, ptr %18, align 4
  br label %87

22:                                               ; preds = %6
  %23 = load ptr, ptr %10, align 8, !tbaa !7
  %24 = icmp eq ptr %23, null
  br i1 %24, label %25, label %26

25:                                               ; preds = %22
  store i32 -1, ptr %7, align 4
  store i32 1, ptr %18, align 4
  br label %87

26:                                               ; preds = %22
  %27 = load i64, ptr %8, align 8, !tbaa !3
  %28 = load ptr, ptr %9, align 8, !tbaa !7
  %29 = call i64 @H5Oopen(i64 noundef %27, ptr noundef %28, i64 noundef 0)
  store i64 %29, ptr %17, align 8, !tbaa !3
  %30 = icmp slt i64 %29, 0
  br i1 %30, label %31, label %32

31:                                               ; preds = %26
  store i32 -1, ptr %7, align 4
  store i32 1, ptr %18, align 4
  br label %87

32:                                               ; preds = %26
  %33 = load i64, ptr %17, align 8, !tbaa !3
  %34 = load ptr, ptr %10, align 8, !tbaa !7
  %35 = call i64 @H5Aopen(i64 noundef %33, ptr noundef %34, i64 noundef 0)
  store i64 %35, ptr %14, align 8, !tbaa !3
  %36 = icmp slt i64 %35, 0
  br i1 %36, label %37, label %40

37:                                               ; preds = %32
  %38 = load i64, ptr %17, align 8, !tbaa !3
  %39 = call i32 @H5Oclose(i64 noundef %38)
  store i32 -1, ptr %7, align 4
  store i32 1, ptr %18, align 4
  br label %87

40:                                               ; preds = %32
  %41 = load i64, ptr %14, align 8, !tbaa !3
  %42 = call i64 @H5Aget_type(i64 noundef %41)
  store i64 %42, ptr %15, align 8, !tbaa !3
  %43 = load i64, ptr %15, align 8, !tbaa !3
  %44 = call i32 @H5Tget_class(i64 noundef %43)
  %45 = load ptr, ptr %12, align 8, !tbaa !14
  store i32 %44, ptr %45, align 4, !tbaa !10
  %46 = load i64, ptr %15, align 8, !tbaa !3
  %47 = call i64 @H5Tget_size(i64 noundef %46)
  %48 = load ptr, ptr %13, align 8, !tbaa !12
  store i64 %47, ptr %48, align 8, !tbaa !3
  %49 = load i64, ptr %14, align 8, !tbaa !3
  %50 = call i64 @H5Aget_space(i64 noundef %49)
  store i64 %50, ptr %16, align 8, !tbaa !3
  %51 = icmp slt i64 %50, 0
  br i1 %51, label %52, label %53

52:                                               ; preds = %40
  br label %80

53:                                               ; preds = %40
  %54 = load i64, ptr %16, align 8, !tbaa !3
  %55 = load ptr, ptr %11, align 8, !tbaa !12
  %56 = call i32 @H5Sget_simple_extent_dims(i64 noundef %54, ptr noundef %55, ptr noundef null)
  %57 = icmp slt i32 %56, 0
  br i1 %57, label %58, label %59

58:                                               ; preds = %53
  br label %80

59:                                               ; preds = %53
  %60 = load i64, ptr %16, align 8, !tbaa !3
  %61 = call i32 @H5Sclose(i64 noundef %60)
  %62 = icmp slt i32 %61, 0
  br i1 %62, label %63, label %64

63:                                               ; preds = %59
  br label %80

64:                                               ; preds = %59
  %65 = load i64, ptr %15, align 8, !tbaa !3
  %66 = call i32 @H5Tclose(i64 noundef %65)
  %67 = icmp ne i32 %66, 0
  br i1 %67, label %68, label %69

68:                                               ; preds = %64
  br label %80

69:                                               ; preds = %64
  %70 = load i64, ptr %14, align 8, !tbaa !3
  %71 = call i32 @H5Aclose(i64 noundef %70)
  %72 = icmp ne i32 %71, 0
  br i1 %72, label %73, label %74

73:                                               ; preds = %69
  br label %80

74:                                               ; preds = %69
  %75 = load i64, ptr %17, align 8, !tbaa !3
  %76 = call i32 @H5Oclose(i64 noundef %75)
  %77 = icmp slt i32 %76, 0
  br i1 %77, label %78, label %79

78:                                               ; preds = %74
  store i32 -1, ptr %7, align 4
  store i32 1, ptr %18, align 4
  br label %87

79:                                               ; preds = %74
  store i32 0, ptr %7, align 4
  store i32 1, ptr %18, align 4
  br label %87

80:                                               ; preds = %73, %68, %63, %58, %52
  %81 = load i64, ptr %15, align 8, !tbaa !3
  %82 = call i32 @H5Tclose(i64 noundef %81)
  %83 = load i64, ptr %14, align 8, !tbaa !3
  %84 = call i32 @H5Aclose(i64 noundef %83)
  %85 = load i64, ptr %17, align 8, !tbaa !3
  %86 = call i32 @H5Oclose(i64 noundef %85)
  store i32 -1, ptr %7, align 4
  store i32 1, ptr %18, align 4
  br label %87

87:                                               ; preds = %80, %79, %78, %37, %31, %25, %21
  call void @llvm.lifetime.end.p0(i64 8, ptr %17) #11
  call void @llvm.lifetime.end.p0(i64 8, ptr %16) #11
  call void @llvm.lifetime.end.p0(i64 8, ptr %15) #11
  call void @llvm.lifetime.end.p0(i64 8, ptr %14) #11
  %88 = load i32, ptr %7, align 4
  ret i32 %88
}