; Function Attrs: nounwind uwtable
define range(i32 -1, 1) i32 @H5LTget_attribute_info(i64 noundef %0, ptr noundef %1, ptr noundef %2, ptr noundef %3, ptr noundef writeonly captures(none) %4, ptr noundef writeonly captures(none) %5) local_unnamed_addr #0 {
  %7 = icmp eq ptr %1, null
  %8 = icmp eq ptr %2, null
  %or.cond = or i1 %7, %8
  br i1 %or.cond, label %39, label %9

9:                                                ; preds = %6
  %10 = tail call i64 @H5Oopen(i64 noundef %0, ptr noundef nonnull %1, i64 noundef 0) #20
  %11 = icmp slt i64 %10, 0
  br i1 %11, label %39, label %12

12:                                               ; preds = %9
  %13 = tail call i64 @H5Aopen(i64 noundef %10, ptr noundef nonnull %2, i64 noundef 0) #20
  %14 = icmp slt i64 %13, 0
  br i1 %14, label %15, label %17

15:                                               ; preds = %12
  %16 = tail call i32 @H5Oclose(i64 noundef %10) #20
  br label %39

17:                                               ; preds = %12
  %18 = tail call i64 @H5Aget_type(i64 noundef %13) #20
  %19 = tail call i32 @H5Tget_class(i64 noundef %18) #20
  store i32 %19, ptr %4, align 4, !tbaa !3
  %20 = tail call i64 @H5Tget_size(i64 noundef %18) #20
  store i64 %20, ptr %5, align 8, !tbaa !15
  %21 = tail call i64 @H5Aget_space(i64 noundef %13) #20
  %22 = icmp slt i64 %21, 0
  br i1 %22, label %35, label %23

23:                                               ; preds = %17
  %24 = tail call i32 @H5Sget_simple_extent_dims(i64 noundef %21, ptr noundef %3, ptr noundef null) #20
  %25 = icmp slt i32 %24, 0
  br i1 %25, label %35, label %26

26:                                               ; preds = %23
  %27 = tail call i32 @H5Sclose(i64 noundef %21) #20
  %28 = icmp slt i32 %27, 0
  br i1 %28, label %35, label %29

29:                                               ; preds = %26
  %30 = tail call i32 @H5Tclose(i64 noundef %18) #20
  %.not = icmp eq i32 %30, 0
  br i1 %.not, label %31, label %35

31:                                               ; preds = %29
  %32 = tail call i32 @H5Aclose(i64 noundef %13) #20
  %.not27 = icmp eq i32 %32, 0
  br i1 %.not27, label %33, label %35

33:                                               ; preds = %31
  %34 = tail call i32 @H5Oclose(i64 noundef %10) #20
  %.lobit = ashr i32 %34, 31
  br label %39

35:                                               ; preds = %31, %29, %26, %23, %17
  %36 = tail call i32 @H5Tclose(i64 noundef %18) #20
  %37 = tail call i32 @H5Aclose(i64 noundef %13) #20
  %38 = tail call i32 @H5Oclose(i64 noundef %10) #20
  br label %39

39:                                               ; preds = %33, %9, %6, %35, %15
  %.0 = phi i32 [ -1, %15 ], [ -1, %35 ], [ -1, %6 ], [ -1, %9 ], [ %.lobit, %33 ]
  ret i32 %.0
}